target datalayout = "e-m:e-p270:32:32-p271:32:32-p272:64:64-i64:64-i128:128-f80:128-n8:16:32:64-S128"
target triple = "x86_64-pc-linux-gnu"

%struct.VP8Histogram = type { i32, i32 }

@VP8DspScan = hidden constant [24 x i32] [i32 0, i32 4, i32 8, i32 12, i32 128, i32 132, i32 136, i32 140, i32 256, i32 260, i32 264, i32 268, i32 384, i32 388, i32 392, i32 396, i32 0, i32 4, i32 128, i32 132, i32 8, i32 12, i32 136, i32 140], align 16
@VP8FTransform = hidden global ptr null, align 8

; Function Attrs: nounwind uwtable
define hidden void @VP8SetHistogramData(ptr noundef %0, ptr noundef %1) #0 {
  %3 = alloca ptr, align 8
  %4 = alloca ptr, align 8
  %5 = alloca i32, align 4
  %6 = alloca i32, align 4
  %7 = alloca i32, align 4
  %8 = alloca i32, align 4
  store ptr %0, ptr %3, align 8, !tbaa !3
  store ptr %1, ptr %4, align 8, !tbaa !8
  call void @llvm.lifetime.start.p0(i64 4, ptr %5) #8
  store i32 0, ptr %5, align 4, !tbaa !9
  call void @llvm.lifetime.start.p0(i64 4, ptr %6) #8
  store i32 1, ptr %6, align 4, !tbaa !9
  call void @llvm.lifetime.start.p0(i64 4, ptr %7) #8
  store i32 0, ptr %7, align 4, !tbaa !9
  br label %9

9:                                                ; preds = %29, %2
  %10 = load i32, ptr %7, align 4, !tbaa !9
  %11 = icmp sle i32 %10, 31
  br i1 %11, label %12, label %32

12:                                               ; preds = %9
  call void @llvm.lifetime.start.p0(i64 4, ptr %8) #8
  %13 = load ptr, ptr %3, align 8, !tbaa !3
  %14 = load i32, ptr %7, align 4, !tbaa !9
  %15 = sext i32 %14 to i64
  %16 = getelementptr inbounds i32, ptr %13, i64 %15
  %17 = load i32, ptr %16, align 4, !tbaa !9
  store i32 %17, ptr %8, align 4, !tbaa !9
  %18 = load i32, ptr %8, align 4, !tbaa !9
  %19 = icmp sgt i32 %18, 0
  br i1 %19, label %20, label %28

20:                                               ; preds = %12
  %21 = load i32, ptr %8, align 4, !tbaa !9
  %22 = load i32, ptr %5, align 4, !tbaa !9
  %23 = icmp sgt i32 %21, %22
  br i1 %23, label %24, label %26

24:                                               ; preds = %20
  %25 = load i32, ptr %8, align 4, !tbaa !9
  store i32 %25, ptr %5, align 4, !tbaa !9
  br label %26

26:                                               ; preds = %24, %20
  %27 = load i32, ptr %7, align 4, !tbaa !9
  store i32 %27, ptr %6, align 4, !tbaa !9
  br label %28

28:                                               ; preds = %26, %12
  call void @llvm.lifetime.end.p0(i64 4, ptr %8) #8
  br label %29

29:                                               ; preds = %28
  %30 = load i32, ptr %7, align 4, !tbaa !9
  %31 = add nsw i32 %30, 1
  store i32 %31, ptr %7, align 4, !tbaa !9
  br label %9, !llvm.loop !11

32:                                               ; preds = %9
  %33 = load i32, ptr %5, align 4, !tbaa !9
  %34 = load ptr, ptr %4, align 8, !tbaa !8
  %35 = getelementptr inbounds nuw %struct.VP8Histogram, ptr %34, i32 0, i32 0
  store i32 %33, ptr %35, align 4, !tbaa !13
  %36 = load i32, ptr %6, align 4, !tbaa !9
  %37 = load ptr, ptr %4, align 8, !tbaa !8
  %38 = getelementptr inbounds nuw %struct.VP8Histogram, ptr %37, i32 0, i32 1
  store i32 %36, ptr %38, align 4, !tbaa !15
  call void @llvm.lifetime.end.p0(i64 4, ptr %7) #8
  call void @llvm.lifetime.end.p0(i64 4, ptr %6) #8
  call void @llvm.lifetime.end.p0(i64 4, ptr %5) #8
  ret void
}

; Function Attrs: inlinehint nounwind uwtable
define internal i32 @clip_max(i32 noundef %0, i32 noundef %1) #4 {
  %3 = alloca i32, align 4
  %4 = alloca i32, align 4
  store i32 %0, ptr %3, align 4, !tbaa !9
  store i32 %1, ptr %4, align 4, !tbaa !9
  %5 = load i32, ptr %3, align 4, !tbaa !9
  %6 = load i32, ptr %4, align 4, !tbaa !9
  %7 = icmp sgt i32 %5, %6
  br i1 %7, label %8, label %10

8:                                                ; preds = %2
  %9 = load i32, ptr %4, align 4, !tbaa !9
  br label %12

10:                                               ; preds = %2
  %11 = load i32, ptr %3, align 4, !tbaa !9
  br label %12

12:                                               ; preds = %10, %8
  %13 = phi i32 [ %9, %8 ], [ %11, %10 ]
  ret i32 %13
}

; Function Attrs: nounwind uwtable
define internal void @CollectHistogram_C(ptr noalias noundef %0, ptr noalias noundef %1, i32 noundef %2, i32 noundef %3, ptr noalias noundef %4) #0 {
  %6 = alloca ptr, align 8
  %7 = alloca ptr, align 8
  %8 = alloca i32, align 4
  %9 = alloca i32, align 4
  %10 = alloca ptr, align 8
  %11 = alloca i32, align 4
  %12 = alloca [32 x i32], align 16
  %13 = alloca i32, align 4
  %14 = alloca [16 x i16], align 16
  %15 = alloca i32, align 4
  %16 = alloca i32, align 4
  store ptr %0, ptr %6, align 8, !tbaa !18
  store ptr %1, ptr %7, align 8, !tbaa !18
  store i32 %2, ptr %8, align 4, !tbaa !9
  store i32 %3, ptr %9, align 4, !tbaa !9
  store ptr %4, ptr %10, align 8, !tbaa !8
  call void @llvm.lifetime.start.p0(i64 4, ptr %11) #8
  call void @llvm.lifetime.start.p0(i64 128, ptr %12) #8
  call void @llvm.memset.p0.i64(ptr align 16 %12, i8 0, i64 128, i1 false)
  %17 = load i32, ptr %8, align 4, !tbaa !9
  store i32 %17, ptr %11, align 4, !tbaa !9
  br label %18

18:                                               ; preds = %61, %5
  %19 = load i32, ptr %11, align 4, !tbaa !9
  %20 = load i32, ptr %9, align 4, !tbaa !9
  %21 = icmp slt i32 %19, %20
  br i1 %21, label %22, label %64

22:                                               ; preds = %18
  call void @llvm.lifetime.start.p0(i64 4, ptr %13) #8
  call void @llvm.lifetime.start.p0(i64 32, ptr %14) #8
  %23 = load ptr, ptr @VP8FTransform, align 8, !tbaa !8
  %24 = load ptr, ptr %6, align 8, !tbaa !18
  %25 = load i32, ptr %11, align 4, !tbaa !9
  %26 = sext i32 %25 to i64
  %27 = getelementptr inbounds [24 x i32], ptr @VP8DspScan, i64 0, i64 %26
  %28 = load i32, ptr %27, align 4, !tbaa !9
  %29 = sext i32 %28 to i64
  %30 = getelementptr inbounds i8, ptr %24, i64 %29
  %31 = load ptr, ptr %7, align 8, !tbaa !18
  %32 = load i32, ptr %11, align 4, !tbaa !9
  %33 = sext i32 %32 to i64
  %34 = getelementptr inbounds [24 x i32], ptr @VP8DspScan, i64 0, i64 %33
  %35 = load i32, ptr %34, align 4, !tbaa !9
  %36 = sext i32 %35 to i64
  %37 = getelementptr inbounds i8, ptr %31, i64 %36
  %38 = getelementptr inbounds [16 x i16], ptr %14, i64 0, i64 0
  call void %23(ptr noundef %30, ptr noundef %37, ptr noundef %38)
  store i32 0, ptr %13, align 4, !tbaa !9
  br label %39

39:                                               ; preds = %57, %22
  %40 = load i32, ptr %13, align 4, !tbaa !9
  %41 = icmp slt i32 %40, 16
  br i1 %41, label %42, label %60

42:                                               ; preds = %39
  call void @llvm.lifetime.start.p0(i64 4, ptr %15) #8
  %43 = load i32, ptr %13, align 4, !tbaa !9
  %44 = sext i32 %43 to i64
  %45 = getelementptr inbounds [16 x i16], ptr %14, i64 0, i64 %44
  %46 = load i16, ptr %45, align 2, !tbaa !23
  %47 = sext i16 %46 to i32
  %48 = call i32 @llvm.abs.i32(i32 %47, i1 true)
  %49 = ashr i32 %48, 3
  store i32 %49, ptr %15, align 4, !tbaa !9
  call void @llvm.lifetime.start.p0(i64 4, ptr %16) #8
  %50 = load i32, ptr %15, align 4, !tbaa !9
  %51 = call i32 @clip_max(i32 noundef %50, i32 noundef 31)
  store i32 %51, ptr %16, align 4, !tbaa !9
  %52 = load i32, ptr %16, align 4, !tbaa !9
  %53 = sext i32 %52 to i64
  %54 = getelementptr inbounds [32 x i32], ptr %12, i64 0, i64 %53
  %55 = load i32, ptr %54, align 4, !tbaa !9
  %56 = add nsw i32 %55, 1
  store i32 %56, ptr %54, align 4, !tbaa !9
  call void @llvm.lifetime.end.p0(i64 4, ptr %16) #8
  call void @llvm.lifetime.end.p0(i64 4, ptr %15) #8
  br label %57

57:                                               ; preds = %42
  %58 = load i32, ptr %13, align 4, !tbaa !9
  %59 = add nsw i32 %58, 1
  store i32 %59, ptr %13, align 4, !tbaa !9
  br label %39, !llvm.loop !30

60:                                               ; preds = %39
  call void @llvm.lifetime.end.p0(i64 32, ptr %14) #8
  call void @llvm.lifetime.end.p0(i64 4, ptr %13) #8
  br label %61

61:                                               ; preds = %60
  %62 = load i32, ptr %11, align 4, !tbaa !9
  %63 = add nsw i32 %62, 1
  store i32 %63, ptr %11, align 4, !tbaa !9
  br label %18, !llvm.loop !31

64:                                               ; preds = %18
  %65 = getelementptr inbounds [32 x i32], ptr %12, i64 0, i64 0
  %66 = load ptr, ptr %10, align 8, !tbaa !8
  call void @VP8SetHistogramData(ptr noundef %65, ptr noundef %66)
  call void @llvm.lifetime.end.p0(i64 128, ptr %12) #8
  call void @llvm.lifetime.end.p0(i64 4, ptr %11) #8
  ret void
}