; Function Attrs: nounwind uwtable
define internal void @CollectHistogram_C(ptr noalias noundef %0, ptr noalias noundef %1, i32 noundef %2, i32 noundef %3, ptr noalias noundef writeonly captures(none) %4) #2 {
  %6 = alloca [32 x i32], align 16
  %7 = alloca [16 x i16], align 16
  call void @llvm.lifetime.start.p0(i64 128, ptr nonnull %6) #15
  call void @llvm.memset.p0.i64(ptr noundef nonnull align 16 dereferenceable(128) %6, i8 0, i64 128, i1 false)
  %8 = icmp slt i32 %2, %3
  br i1 %8, label %.lr.ph.preheader, label %.preheader.preheader

.lr.ph.preheader:                                 ; preds = %5
  %9 = sext i32 %2 to i64
  %wide.trip.count = sext i32 %3 to i64
  br label %.lr.ph

.lr.ph:                                           ; preds = %.lr.ph.preheader, %26
  %indvars.iv17 = phi i64 [ %9, %.lr.ph.preheader ], [ %indvars.iv.next18, %26 ]
  call void @llvm.lifetime.start.p0(i64 32, ptr nonnull %7) #15
  %10 = load ptr, ptr @VP8FTransform, align 8, !tbaa !12
  %11 = getelementptr inbounds [24 x i32], ptr @VP8DspScan, i64 0, i64 %indvars.iv17
  %12 = load i32, ptr %11, align 4, !tbaa !3
  %13 = sext i32 %12 to i64
  %14 = getelementptr inbounds i8, ptr %0, i64 %13
  %15 = getelementptr inbounds i8, ptr %1, i64 %13
  call void %10(ptr noundef %14, ptr noundef %15, ptr noundef nonnull %7) #15
  br label %16

16:                                               ; preds = %.lr.ph, %16
  %indvars.iv = phi i64 [ 0, %.lr.ph ], [ %indvars.iv.next, %16 ]
  %17 = getelementptr inbounds nuw [16 x i16], ptr %7, i64 0, i64 %indvars.iv
  %18 = load i16, ptr %17, align 2, !tbaa !17
  %19 = call i16 @llvm.abs.i16(i16 %18, i1 false)
  %20 = lshr i16 %19, 3
  %21 = call i16 @llvm.umin.i16(i16 %20, i16 31)
  %22 = zext nneg i16 %21 to i64
  %23 = getelementptr inbounds nuw [32 x i32], ptr %6, i64 0, i64 %22
  %24 = load i32, ptr %23, align 4, !tbaa !3
  %25 = add nsw i32 %24, 1
  store i32 %25, ptr %23, align 4, !tbaa !3
  %indvars.iv.next = add nuw nsw i64 %indvars.iv, 1
  %exitcond.not = icmp eq i64 %indvars.iv.next, 16
  br i1 %exitcond.not, label %26, label %16, !llvm.loop !54

26:                                               ; preds = %16
  call void @llvm.lifetime.end.p0(i64 32, ptr nonnull %7) #15
  %indvars.iv.next18 = add nsw i64 %indvars.iv17, 1
  %exitcond20.not = icmp eq i64 %indvars.iv.next18, %wide.trip.count
  br i1 %exitcond20.not, label %.preheader.preheader, label %.lr.ph, !llvm.loop !55

.preheader.preheader:                             ; preds = %26, %5
  br label %.preheader

.preheader:                                       ; preds = %.preheader.preheader, %.preheader
  %indvars.iv.i = phi i64 [ %indvars.iv.next.i, %.preheader ], [ 0, %.preheader.preheader ]
  %.018.i = phi i32 [ %.1.i, %.preheader ], [ 0, %.preheader.preheader ]
  %.01316.i = phi i32 [ %.114.i, %.preheader ], [ 1, %.preheader.preheader ]
  %27 = getelementptr inbounds nuw i32, ptr %6, i64 %indvars.iv.i
  %28 = load i32, ptr %27, align 4, !tbaa !3
  %29 = icmp sgt i32 %28, 0
  %spec.select.i = call i32 @llvm.smax.i32(i32 %28, i32 %.018.i)
  %30 = trunc nuw nsw i64 %indvars.iv.i to i32
  %.114.i = select i1 %29, i32 %30, i32 %.01316.i
  %.1.i = select i1 %29, i32 %spec.select.i, i32 %.018.i
  %indvars.iv.next.i = add nuw nsw i64 %indvars.iv.i, 1
  %exitcond.not.i = icmp eq i64 %indvars.iv.next.i, 32
  br i1 %exitcond.not.i, label %VP8SetHistogramData.exit, label %.preheader, !llvm.loop !7

VP8SetHistogramData.exit:                         ; preds = %.preheader
  store i32 %.1.i, ptr %4, align 4, !tbaa !9
  %31 = getelementptr inbounds nuw i8, ptr %4, i64 4
  store i32 %.114.i, ptr %31, align 4, !tbaa !11
  call void @llvm.lifetime.end.p0(i64 128, ptr nonnull %6) #15
  ret void
}